target datalayout = "e-m:e-p270:32:32-p271:32:32-p272:64:64-i64:64-i128:128-f80:128-n8:16:32:64-S128"
target triple = "x86_64-pc-linux-gnu"

; Function Attrs: mustprogress nounwind uwtable
define hidden void @_ZN4ncnn23invert_affine_transformEPKfPf(ptr noundef %0, ptr noundef %1) #0 {
  %3 = alloca ptr, align 8
  %4 = alloca ptr, align 8
  %5 = alloca float, align 4
  %6 = alloca float, align 4
  %7 = alloca float, align 4
  %8 = alloca float, align 4
  %9 = alloca float, align 4
  %10 = alloca float, align 4
  %11 = alloca float, align 4
  store ptr %0, ptr %3, align 8
  store ptr %1, ptr %4, align 8
  %12 = load ptr, ptr %3, align 8
  %13 = getelementptr inbounds float, ptr %12, i64 0
  %14 = load float, ptr %13, align 4
  %15 = load ptr, ptr %3, align 8
  %16 = getelementptr inbounds float, ptr %15, i64 4
  %17 = load float, ptr %16, align 4
  %18 = fmul fast float %14, %17
  %19 = load ptr, ptr %3, align 8
  %20 = getelementptr inbounds float, ptr %19, i64 1
  %21 = load float, ptr %20, align 4
  %22 = load ptr, ptr %3, align 8
  %23 = getelementptr inbounds float, ptr %22, i64 3
  %24 = load float, ptr %23, align 4
  %25 = fmul fast float %21, %24
  %26 = fsub fast float %18, %25
  store float %26, ptr %5, align 4
  %27 = load float, ptr %5, align 4
  %28 = fcmp fast une float %27, 0.000000e+00
  br i1 %28, label %29, label %32

29:                                               ; preds = %2
  %30 = load float, ptr %5, align 4
  %31 = fdiv fast float 1.000000e+00, %30
  br label %33

32:                                               ; preds = %2
  br label %33

33:                                               ; preds = %32, %29
  %34 = phi fast float [ %31, %29 ], [ 0.000000e+00, %32 ]
  store float %34, ptr %5, align 4
  %35 = load ptr, ptr %3, align 8
  %36 = getelementptr inbounds float, ptr %35, i64 4
  %37 = load float, ptr %36, align 4
  %38 = load float, ptr %5, align 4
  %39 = fmul fast float %37, %38
  store float %39, ptr %6, align 4
  %40 = load ptr, ptr %3, align 8
  %41 = getelementptr inbounds float, ptr %40, i64 0
  %42 = load float, ptr %41, align 4
  %43 = load float, ptr %5, align 4
  %44 = fmul fast float %42, %43
  store float %44, ptr %7, align 4
  %45 = load ptr, ptr %3, align 8
  %46 = getelementptr inbounds float, ptr %45, i64 1
  %47 = load float, ptr %46, align 4
  %48 = fneg fast float %47
  %49 = load float, ptr %5, align 4
  %50 = fmul fast float %48, %49
  store float %50, ptr %8, align 4
  %51 = load ptr, ptr %3, align 8
  %52 = getelementptr inbounds float, ptr %51, i64 3
  %53 = load float, ptr %52, align 4
  %54 = fneg fast float %53
  %55 = load float, ptr %5, align 4
  %56 = fmul fast float %54, %55
  store float %56, ptr %9, align 4
  %57 = load float, ptr %6, align 4
  %58 = fneg fast float %57
  %59 = load ptr, ptr %3, align 8
  %60 = getelementptr inbounds float, ptr %59, i64 2
  %61 = load float, ptr %60, align 4
  %62 = fmul fast float %58, %61
  %63 = load float, ptr %8, align 4
  %64 = load ptr, ptr %3, align 8
  %65 = getelementptr inbounds float, ptr %64, i64 5
  %66 = load float, ptr %65, align 4
  %67 = fmul fast float %63, %66
  %68 = fsub fast float %62, %67
  store float %68, ptr %10, align 4
  %69 = load float, ptr %9, align 4
  %70 = fneg fast float %69
  %71 = load ptr, ptr %3, align 8
  %72 = getelementptr inbounds float, ptr %71, i64 2
  %73 = load float, ptr %72, align 4
  %74 = fmul fast float %70, %73
  %75 = load float, ptr %7, align 4
  %76 = load ptr, ptr %3, align 8
  %77 = getelementptr inbounds float, ptr %76, i64 5
  %78 = load float, ptr %77, align 4
  %79 = fmul fast float %75, %78
  %80 = fsub fast float %74, %79
  store float %80, ptr %11, align 4
  %81 = load float, ptr %6, align 4
  %82 = load ptr, ptr %4, align 8
  %83 = getelementptr inbounds float, ptr %82, i64 0
  store float %81, ptr %83, align 4
  %84 = load float, ptr %8, align 4
  %85 = load ptr, ptr %4, align 8
  %86 = getelementptr inbounds float, ptr %85, i64 1
  store float %84, ptr %86, align 4
  %87 = load float, ptr %10, align 4
  %88 = load ptr, ptr %4, align 8
  %89 = getelementptr inbounds float, ptr %88, i64 2
  store float %87, ptr %89, align 4
  %90 = load float, ptr %9, align 4
  %91 = load ptr, ptr %4, align 8
  %92 = getelementptr inbounds float, ptr %91, i64 3
  store float %90, ptr %92, align 4
  %93 = load float, ptr %7, align 4
  %94 = load ptr, ptr %4, align 8
  %95 = getelementptr inbounds float, ptr %94, i64 4
  store float %93, ptr %95, align 4
  %96 = load float, ptr %11, align 4
  %97 = load ptr, ptr %4, align 8
  %98 = getelementptr inbounds float, ptr %97, i64 5
  store float %96, ptr %98, align 4
  ret void
}