; Function Attrs: mustprogress nofree norecurse nosync nounwind willreturn memory(argmem: readwrite) uwtable
define hidden void @_ZN4ncnn23invert_affine_transformEPKfPf(ptr nocapture noundef readonly %0, ptr nocapture noundef writeonly %1) local_unnamed_addr #3 {
  %3 = load float, ptr %0, align 4
  %4 = getelementptr inbounds i8, ptr %0, i64 16
  %5 = load float, ptr %4, align 4
  %6 = fmul fast float %5, %3
  %7 = getelementptr inbounds i8, ptr %0, i64 4
  %8 = load float, ptr %7, align 4
  %9 = getelementptr inbounds i8, ptr %0, i64 12
  %10 = load float, ptr %9, align 4
  %11 = fmul fast float %10, %8
  %12 = fsub fast float %6, %11
  %13 = fcmp fast une float %12, 0.000000e+00
  %14 = fdiv fast float 1.000000e+00, %12
  %15 = select fast i1 %13, float %14, float 0.000000e+00
  %16 = fmul fast float %15, %5
  %17 = fmul fast float %15, %3
  %18 = fneg fast float %8
  %19 = fmul fast float %15, %18
  %20 = fneg fast float %10
  %21 = fmul fast float %15, %20
  %22 = getelementptr inbounds i8, ptr %0, i64 8
  %23 = load float, ptr %22, align 4
  %24 = fneg fast float %23
  %25 = fmul fast float %16, %24
  %26 = getelementptr inbounds i8, ptr %0, i64 20
  %27 = load float, ptr %26, align 4
  %28 = fmul fast float %19, %27
  %29 = fsub fast float %25, %28
  %30 = fmul fast float %21, %24
  %31 = fmul fast float %17, %27
  %32 = fsub fast float %30, %31
  store float %16, ptr %1, align 4
  %33 = getelementptr inbounds i8, ptr %1, i64 4
  store float %19, ptr %33, align 4
  %34 = getelementptr inbounds i8, ptr %1, i64 8
  store float %29, ptr %34, align 4
  %35 = getelementptr inbounds i8, ptr %1, i64 12
  store float %21, ptr %35, align 4
  %36 = getelementptr inbounds i8, ptr %1, i64 16
  store float %17, ptr %36, align 4
  %37 = getelementptr inbounds i8, ptr %1, i64 20
  store float %32, ptr %37, align 4
  ret void
}